target datalayout = "e-m:e-p270:32:32-p271:32:32-p272:64:64-i64:64-i128:128-f80:128-n8:16:32:64-S128"
target triple = "x86_64-pc-linux-gnu"

%struct.Hacl_Hash_Blake2b_blake2_params_s = type { i8, i8, i8, i8, i32, i64, i8, i8, ptr, ptr }

@Hacl_Hash_Blake2b_ivTable_B = internal constant [8 x i64] [i64 7640891576956012808, i64 -4942790177534073029, i64 4354685564936845355, i64 -6534734903238641935, i64 5840696475078001361, i64 -7276294671716946913, i64 2270897969802886507, i64 6620516959819538809], align 16

; Function Attrs: inlinehint nounwind uwtable
define internal i64 @__uint64_identity(i64 noundef %0) #4 {
  %2 = alloca i64, align 8
  store i64 %0, ptr %2, align 8, !tbaa !22
  %3 = load i64, ptr %2, align 8, !tbaa !22
  ret i64 %3
}

; Function Attrs: inlinehint nounwind uwtable
define internal i64 @load64(ptr noundef %0) #4 {
  %2 = alloca ptr, align 8
  %3 = alloca i64, align 8
  store ptr %0, ptr %2, align 8, !tbaa !26
  call void @llvm.lifetime.start.p0(i64 8, ptr %3) #14
  %4 = load ptr, ptr %2, align 8, !tbaa !26
  call void @llvm.memcpy.p0.p0.i64(ptr align 8 %3, ptr align 1 %4, i64 8, i1 false)
  %5 = load i64, ptr %3, align 8, !tbaa !22
  call void @llvm.lifetime.end.p0(i64 8, ptr %3) #14
  ret i64 %5
}

; Function Attrs: alwaysinline nounwind uwtable
define internal <4 x i64> @_mm256_set_epi64x(i64 noundef %0, i64 noundef %1, i64 noundef %2, i64 noundef %3) #3 {
  %5 = alloca i64, align 8
  %6 = alloca i64, align 8
  %7 = alloca i64, align 8
  %8 = alloca i64, align 8
  %9 = alloca <4 x i64>, align 32
  store i64 %0, ptr %5, align 8, !tbaa !27
  store i64 %1, ptr %6, align 8, !tbaa !27
  store i64 %2, ptr %7, align 8, !tbaa !27
  store i64 %3, ptr %8, align 8, !tbaa !27
  %10 = load i64, ptr %8, align 8, !tbaa !27
  %11 = insertelement <4 x i64> poison, i64 %10, i32 0
  %12 = load i64, ptr %7, align 8, !tbaa !27
  %13 = insertelement <4 x i64> %11, i64 %12, i32 1
  %14 = load i64, ptr %6, align 8, !tbaa !27
  %15 = insertelement <4 x i64> %13, i64 %14, i32 2
  %16 = load i64, ptr %5, align 8, !tbaa !27
  %17 = insertelement <4 x i64> %15, i64 %16, i32 3
  store <4 x i64> %17, ptr %9, align 32, !tbaa !23
  %18 = load <4 x i64>, ptr %9, align 32, !tbaa !23
  ret <4 x i64> %18
}

; Function Attrs: nounwind uwtable
define hidden void @python_hashlib_Hacl_Hash_Blake2b_Simd256_init(ptr noundef %0, i32 noundef %1, i32 noundef %2) #0 {
  %4 = alloca ptr, align 8
  %5 = alloca i32, align 4
  %6 = alloca i32, align 4
  %7 = alloca [16 x i8], align 16
  %8 = alloca [16 x i8], align 16
  %9 = alloca %struct.Hacl_Hash_Blake2b_blake2_params_s, align 8
  %10 = alloca [8 x i64], align 16
  %11 = alloca ptr, align 8
  %12 = alloca ptr, align 8
  %13 = alloca ptr, align 8
  %14 = alloca ptr, align 8
  %15 = alloca i64, align 8
  %16 = alloca i64, align 8
  %17 = alloca i64, align 8
  %18 = alloca i64, align 8
  %19 = alloca i64, align 8
  %20 = alloca i64, align 8
  %21 = alloca i64, align 8
  %22 = alloca i64, align 8
  %23 = alloca i8, align 1
  %24 = alloca i8, align 1
  %25 = alloca i32, align 4
  %26 = alloca ptr, align 8
  %27 = alloca ptr, align 8
  %28 = alloca i64, align 8
  %29 = alloca i64, align 8
  %30 = alloca i64, align 8
  %31 = alloca ptr, align 8
  %32 = alloca ptr, align 8
  %33 = alloca i64, align 8
  %34 = alloca i64, align 8
  %35 = alloca i64, align 8
  %36 = alloca i32, align 4
  %37 = alloca ptr, align 8
  %38 = alloca ptr, align 8
  %39 = alloca i64, align 8
  %40 = alloca i64, align 8
  %41 = alloca i64, align 8
  %42 = alloca ptr, align 8
  %43 = alloca ptr, align 8
  %44 = alloca i64, align 8
  %45 = alloca i64, align 8
  %46 = alloca i64, align 8
  %47 = alloca i64, align 8
  %48 = alloca i64, align 8
  %49 = alloca i64, align 8
  %50 = alloca i64, align 8
  %51 = alloca i64, align 8
  %52 = alloca i64, align 8
  %53 = alloca i64, align 8
  %54 = alloca i64, align 8
  %55 = alloca i64, align 8
  %56 = alloca i64, align 8
  %57 = alloca i64, align 8
  %58 = alloca i64, align 8
  %59 = alloca i64, align 8
  %60 = alloca i64, align 8
  %61 = alloca i64, align 8
  %62 = alloca i64, align 8
  store ptr %0, ptr %4, align 8, !tbaa !3
  store i32 %1, ptr %5, align 4, !tbaa !7
  store i32 %2, ptr %6, align 4, !tbaa !7
  call void @llvm.lifetime.start.p0(i64 16, ptr %7) #14
  call void @llvm.memset.p0.i64(ptr align 16 %7, i8 0, i64 16, i1 false)
  call void @llvm.lifetime.start.p0(i64 16, ptr %8) #14
  call void @llvm.memset.p0.i64(ptr align 16 %8, i8 0, i64 16, i1 false)
  call void @llvm.lifetime.start.p0(i64 40, ptr %9) #14
  %63 = getelementptr inbounds nuw %struct.Hacl_Hash_Blake2b_blake2_params_s, ptr %9, i32 0, i32 0
  store i8 64, ptr %63, align 8, !tbaa !9
  %64 = getelementptr inbounds nuw %struct.Hacl_Hash_Blake2b_blake2_params_s, ptr %9, i32 0, i32 1
  store i8 0, ptr %64, align 1, !tbaa !13
  %65 = getelementptr inbounds nuw %struct.Hacl_Hash_Blake2b_blake2_params_s, ptr %9, i32 0, i32 2
  store i8 1, ptr %65, align 2, !tbaa !14
  %66 = getelementptr inbounds nuw %struct.Hacl_Hash_Blake2b_blake2_params_s, ptr %9, i32 0, i32 3
  store i8 1, ptr %66, align 1, !tbaa !15
  %67 = getelementptr inbounds nuw %struct.Hacl_Hash_Blake2b_blake2_params_s, ptr %9, i32 0, i32 4
  store i32 0, ptr %67, align 4, !tbaa !16
  %68 = getelementptr inbounds nuw %struct.Hacl_Hash_Blake2b_blake2_params_s, ptr %9, i32 0, i32 5
  store i64 0, ptr %68, align 8, !tbaa !17
  %69 = getelementptr inbounds nuw %struct.Hacl_Hash_Blake2b_blake2_params_s, ptr %9, i32 0, i32 6
  store i8 0, ptr %69, align 8, !tbaa !18
  %70 = getelementptr inbounds nuw %struct.Hacl_Hash_Blake2b_blake2_params_s, ptr %9, i32 0, i32 7
  store i8 0, ptr %70, align 1, !tbaa !19
  %71 = getelementptr i8, ptr %9, i64 18
  call void @llvm.memset.p0.i64(ptr align 2 %71, i8 0, i64 6, i1 false)
  %72 = getelementptr inbounds nuw %struct.Hacl_Hash_Blake2b_blake2_params_s, ptr %9, i32 0, i32 8
  %73 = getelementptr inbounds [16 x i8], ptr %7, i64 0, i64 0
  store ptr %73, ptr %72, align 8, !tbaa !20
  %74 = getelementptr inbounds nuw %struct.Hacl_Hash_Blake2b_blake2_params_s, ptr %9, i32 0, i32 9
  %75 = getelementptr inbounds [16 x i8], ptr %8, i64 0, i64 0
  store ptr %75, ptr %74, align 8, !tbaa !21
  call void @llvm.lifetime.start.p0(i64 64, ptr %10) #14
  call void @llvm.memset.p0.i64(ptr align 16 %10, i8 0, i64 64, i1 false)
  call void @llvm.lifetime.start.p0(i64 8, ptr %11) #14
  %76 = load ptr, ptr %4, align 8, !tbaa !3
  store ptr %76, ptr %11, align 8, !tbaa !3
  call void @llvm.lifetime.start.p0(i64 8, ptr %12) #14
  %77 = load ptr, ptr %4, align 8, !tbaa !3
  %78 = getelementptr <4 x i64>, ptr %77, i64 1
  store ptr %78, ptr %12, align 8, !tbaa !3
  call void @llvm.lifetime.start.p0(i64 8, ptr %13) #14
  %79 = load ptr, ptr %4, align 8, !tbaa !3
  %80 = getelementptr <4 x i64>, ptr %79, i64 2
  store ptr %80, ptr %13, align 8, !tbaa !3
  call void @llvm.lifetime.start.p0(i64 8, ptr %14) #14
  %81 = load ptr, ptr %4, align 8, !tbaa !3
  %82 = getelementptr <4 x i64>, ptr %81, i64 3
  store ptr %82, ptr %14, align 8, !tbaa !3
  call void @llvm.lifetime.start.p0(i64 8, ptr %15) #14
  %83 = load i64, ptr @Hacl_Hash_Blake2b_ivTable_B, align 16, !tbaa !22
  store i64 %83, ptr %15, align 8, !tbaa !22
  call void @llvm.lifetime.start.p0(i64 8, ptr %16) #14
  %84 = load i64, ptr getelementptr ([8 x i64], ptr @Hacl_Hash_Blake2b_ivTable_B, i64 0, i64 1), align 8, !tbaa !22
  store i64 %84, ptr %16, align 8, !tbaa !22
  call void @llvm.lifetime.start.p0(i64 8, ptr %17) #14
  %85 = load i64, ptr getelementptr ([8 x i64], ptr @Hacl_Hash_Blake2b_ivTable_B, i64 0, i64 2), align 16, !tbaa !22
  store i64 %85, ptr %17, align 8, !tbaa !22
  call void @llvm.lifetime.start.p0(i64 8, ptr %18) #14
  %86 = load i64, ptr getelementptr ([8 x i64], ptr @Hacl_Hash_Blake2b_ivTable_B, i64 0, i64 3), align 8, !tbaa !22
  store i64 %86, ptr %18, align 8, !tbaa !22
  call void @llvm.lifetime.start.p0(i64 8, ptr %19) #14
  %87 = load i64, ptr getelementptr ([8 x i64], ptr @Hacl_Hash_Blake2b_ivTable_B, i64 0, i64 4), align 16, !tbaa !22
  store i64 %87, ptr %19, align 8, !tbaa !22
  call void @llvm.lifetime.start.p0(i64 8, ptr %20) #14
  %88 = load i64, ptr getelementptr ([8 x i64], ptr @Hacl_Hash_Blake2b_ivTable_B, i64 0, i64 5), align 8, !tbaa !22
  store i64 %88, ptr %20, align 8, !tbaa !22
  call void @llvm.lifetime.start.p0(i64 8, ptr %21) #14
  %89 = load i64, ptr getelementptr ([8 x i64], ptr @Hacl_Hash_Blake2b_ivTable_B, i64 0, i64 6), align 16, !tbaa !22
  store i64 %89, ptr %21, align 8, !tbaa !22
  call void @llvm.lifetime.start.p0(i64 8, ptr %22) #14
  %90 = load i64, ptr getelementptr ([8 x i64], ptr @Hacl_Hash_Blake2b_ivTable_B, i64 0, i64 7), align 8, !tbaa !22
  store i64 %90, ptr %22, align 8, !tbaa !22
  %91 = load i64, ptr %18, align 8, !tbaa !22
  %92 = load i64, ptr %17, align 8, !tbaa !22
  %93 = load i64, ptr %16, align 8, !tbaa !22
  %94 = load i64, ptr %15, align 8, !tbaa !22
  %95 = call <4 x i64> @_mm256_set_epi64x(i64 noundef %91, i64 noundef %92, i64 noundef %93, i64 noundef %94)
  %96 = load ptr, ptr %13, align 8, !tbaa !3
  %97 = getelementptr <4 x i64>, ptr %96, i64 0
  store <4 x i64> %95, ptr %97, align 32, !tbaa !23
  %98 = load i64, ptr %22, align 8, !tbaa !22
  %99 = load i64, ptr %21, align 8, !tbaa !22
  %100 = load i64, ptr %20, align 8, !tbaa !22
  %101 = load i64, ptr %19, align 8, !tbaa !22
  %102 = call <4 x i64> @_mm256_set_epi64x(i64 noundef %98, i64 noundef %99, i64 noundef %100, i64 noundef %101)
  %103 = load ptr, ptr %14, align 8, !tbaa !3
  %104 = getelementptr <4 x i64>, ptr %103, i64 0
  store <4 x i64> %102, ptr %104, align 32, !tbaa !23
  call void @llvm.lifetime.start.p0(i64 1, ptr %23) #14
  %105 = load i32, ptr %5, align 4, !tbaa !7
  %106 = trunc i32 %105 to i8
  store i8 %106, ptr %23, align 1, !tbaa !23
  call void @llvm.lifetime.start.p0(i64 1, ptr %24) #14
  %107 = load i32, ptr %6, align 4, !tbaa !7
  %108 = trunc i32 %107 to i8
  store i8 %108, ptr %24, align 1, !tbaa !23
  br label %109

109:                                              ; preds = %3
  call void @llvm.lifetime.start.p0(i64 4, ptr %25) #14
  store i32 0, ptr %25, align 4, !tbaa !7
  call void @llvm.lifetime.start.p0(i64 8, ptr %26) #14
  %110 = getelementptr inbounds [8 x i64], ptr %10, i64 0, i64 0
  %111 = getelementptr i64, ptr %110, i64 4
  store ptr %111, ptr %26, align 8, !tbaa !24
  call void @llvm.lifetime.start.p0(i64 8, ptr %27) #14
  %112 = getelementptr inbounds nuw %struct.Hacl_Hash_Blake2b_blake2_params_s, ptr %9, i32 0, i32 8
  %113 = load ptr, ptr %112, align 8, !tbaa !20
  %114 = load i32, ptr %25, align 4, !tbaa !7
  %115 = mul i32 %114, 8
  %116 = zext i32 %115 to i64
  %117 = getelementptr i8, ptr %113, i64 %116
  store ptr %117, ptr %27, align 8, !tbaa !26
  call void @llvm.lifetime.start.p0(i64 8, ptr %28) #14
  %118 = load ptr, ptr %27, align 8, !tbaa !26
  %119 = call i64 @load64(ptr noundef %118)
  %120 = call i64 @__uint64_identity(i64 noundef %119)
  store i64 %120, ptr %28, align 8, !tbaa !22
  call void @llvm.lifetime.start.p0(i64 8, ptr %29) #14
  %121 = load i64, ptr %28, align 8, !tbaa !22
  store i64 %121, ptr %29, align 8, !tbaa !22
  call void @llvm.lifetime.start.p0(i64 8, ptr %30) #14
  %122 = load i64, ptr %29, align 8, !tbaa !22
  store i64 %122, ptr %30, align 8, !tbaa !22
  %123 = load i64, ptr %30, align 8, !tbaa !22
  %124 = load ptr, ptr %26, align 8, !tbaa !24
  %125 = load i32, ptr %25, align 4, !tbaa !7
  %126 = zext i32 %125 to i64
  %127 = getelementptr i64, ptr %124, i64 %126
  store i64 %123, ptr %127, align 8, !tbaa !22
  %128 = load i32, ptr %25, align 4, !tbaa !7
  %129 = add i32 %128, 1
  store i32 %129, ptr %25, align 4, !tbaa !7
  call void @llvm.lifetime.end.p0(i64 8, ptr %30) #14
  call void @llvm.lifetime.end.p0(i64 8, ptr %29) #14
  call void @llvm.lifetime.end.p0(i64 8, ptr %28) #14
  call void @llvm.lifetime.end.p0(i64 8, ptr %27) #14
  call void @llvm.lifetime.end.p0(i64 8, ptr %26) #14
  call void @llvm.lifetime.start.p0(i64 8, ptr %31) #14
  %130 = getelementptr inbounds [8 x i64], ptr %10, i64 0, i64 0
  %131 = getelementptr i64, ptr %130, i64 4
  store ptr %131, ptr %31, align 8, !tbaa !24
  call void @llvm.lifetime.start.p0(i64 8, ptr %32) #14
  %132 = getelementptr inbounds nuw %struct.Hacl_Hash_Blake2b_blake2_params_s, ptr %9, i32 0, i32 8
  %133 = load ptr, ptr %132, align 8, !tbaa !20
  %134 = load i32, ptr %25, align 4, !tbaa !7
  %135 = mul i32 %134, 8
  %136 = zext i32 %135 to i64
  %137 = getelementptr i8, ptr %133, i64 %136
  store ptr %137, ptr %32, align 8, !tbaa !26
  call void @llvm.lifetime.start.p0(i64 8, ptr %33) #14
  %138 = load ptr, ptr %32, align 8, !tbaa !26
  %139 = call i64 @load64(ptr noundef %138)
  %140 = call i64 @__uint64_identity(i64 noundef %139)
  store i64 %140, ptr %33, align 8, !tbaa !22
  call void @llvm.lifetime.start.p0(i64 8, ptr %34) #14
  %141 = load i64, ptr %33, align 8, !tbaa !22
  store i64 %141, ptr %34, align 8, !tbaa !22
  call void @llvm.lifetime.start.p0(i64 8, ptr %35) #14
  %142 = load i64, ptr %34, align 8, !tbaa !22
  store i64 %142, ptr %35, align 8, !tbaa !22
  %143 = load i64, ptr %35, align 8, !tbaa !22
  %144 = load ptr, ptr %31, align 8, !tbaa !24
  %145 = load i32, ptr %25, align 4, !tbaa !7
  %146 = zext i32 %145 to i64
  %147 = getelementptr i64, ptr %144, i64 %146
  store i64 %143, ptr %147, align 8, !tbaa !22
  %148 = load i32, ptr %25, align 4, !tbaa !7
  %149 = add i32 %148, 1
  store i32 %149, ptr %25, align 4, !tbaa !7
  call void @llvm.lifetime.end.p0(i64 8, ptr %35) #14
  call void @llvm.lifetime.end.p0(i64 8, ptr %34) #14
  call void @llvm.lifetime.end.p0(i64 8, ptr %33) #14
  call void @llvm.lifetime.end.p0(i64 8, ptr %32) #14
  call void @llvm.lifetime.end.p0(i64 8, ptr %31) #14
  call void @llvm.lifetime.end.p0(i64 4, ptr %25) #14
  br label %150

150:                                              ; preds = %109
  br label %151

151:                                              ; preds = %150
  br label %152

152:                                              ; preds = %151
  call void @llvm.lifetime.start.p0(i64 4, ptr %36) #14
  store i32 0, ptr %36, align 4, !tbaa !7
  call void @llvm.lifetime.start.p0(i64 8, ptr %37) #14
  %153 = getelementptr inbounds [8 x i64], ptr %10, i64 0, i64 0
  %154 = getelementptr i64, ptr %153, i64 6
  store ptr %154, ptr %37, align 8, !tbaa !24
  call void @llvm.lifetime.start.p0(i64 8, ptr %38) #14
  %155 = getelementptr inbounds nuw %struct.Hacl_Hash_Blake2b_blake2_params_s, ptr %9, i32 0, i32 9
  %156 = load ptr, ptr %155, align 8, !tbaa !21
  %157 = load i32, ptr %36, align 4, !tbaa !7
  %158 = mul i32 %157, 8
  %159 = zext i32 %158 to i64
  %160 = getelementptr i8, ptr %156, i64 %159
  store ptr %160, ptr %38, align 8, !tbaa !26
  call void @llvm.lifetime.start.p0(i64 8, ptr %39) #14
  %161 = load ptr, ptr %38, align 8, !tbaa !26
  %162 = call i64 @load64(ptr noundef %161)
  %163 = call i64 @__uint64_identity(i64 noundef %162)
  store i64 %163, ptr %39, align 8, !tbaa !22
  call void @llvm.lifetime.start.p0(i64 8, ptr %40) #14
  %164 = load i64, ptr %39, align 8, !tbaa !22
  store i64 %164, ptr %40, align 8, !tbaa !22
  call void @llvm.lifetime.start.p0(i64 8, ptr %41) #14
  %165 = load i64, ptr %40, align 8, !tbaa !22
  store i64 %165, ptr %41, align 8, !tbaa !22
  %166 = load i64, ptr %41, align 8, !tbaa !22
  %167 = load ptr, ptr %37, align 8, !tbaa !24
  %168 = load i32, ptr %36, align 4, !tbaa !7
  %169 = zext i32 %168 to i64
  %170 = getelementptr i64, ptr %167, i64 %169
  store i64 %166, ptr %170, align 8, !tbaa !22
  %171 = load i32, ptr %36, align 4, !tbaa !7
  %172 = add i32 %171, 1
  store i32 %172, ptr %36, align 4, !tbaa !7
  call void @llvm.lifetime.end.p0(i64 8, ptr %41) #14
  call void @llvm.lifetime.end.p0(i64 8, ptr %40) #14
  call void @llvm.lifetime.end.p0(i64 8, ptr %39) #14
  call void @llvm.lifetime.end.p0(i64 8, ptr %38) #14
  call void @llvm.lifetime.end.p0(i64 8, ptr %37) #14
  call void @llvm.lifetime.start.p0(i64 8, ptr %42) #14
  %173 = getelementptr inbounds [8 x i64], ptr %10, i64 0, i64 0
  %174 = getelementptr i64, ptr %173, i64 6
  store ptr %174, ptr %42, align 8, !tbaa !24
  call void @llvm.lifetime.start.p0(i64 8, ptr %43) #14
  %175 = getelementptr inbounds nuw %struct.Hacl_Hash_Blake2b_blake2_params_s, ptr %9, i32 0, i32 9
  %176 = load ptr, ptr %175, align 8, !tbaa !21
  %177 = load i32, ptr %36, align 4, !tbaa !7
  %178 = mul i32 %177, 8
  %179 = zext i32 %178 to i64
  %180 = getelementptr i8, ptr %176, i64 %179
  store ptr %180, ptr %43, align 8, !tbaa !26
  call void @llvm.lifetime.start.p0(i64 8, ptr %44) #14
  %181 = load ptr, ptr %43, align 8, !tbaa !26
  %182 = call i64 @load64(ptr noundef %181)
  %183 = call i64 @__uint64_identity(i64 noundef %182)
  store i64 %183, ptr %44, align 8, !tbaa !22
  call void @llvm.lifetime.start.p0(i64 8, ptr %45) #14
  %184 = load i64, ptr %44, align 8, !tbaa !22
  store i64 %184, ptr %45, align 8, !tbaa !22
  call void @llvm.lifetime.start.p0(i64 8, ptr %46) #14
  %185 = load i64, ptr %45, align 8, !tbaa !22
  store i64 %185, ptr %46, align 8, !tbaa !22
  %186 = load i64, ptr %46, align 8, !tbaa !22
  %187 = load ptr, ptr %42, align 8, !tbaa !24
  %188 = load i32, ptr %36, align 4, !tbaa !7
  %189 = zext i32 %188 to i64
  %190 = getelementptr i64, ptr %187, i64 %189
  store i64 %186, ptr %190, align 8, !tbaa !22
  %191 = load i32, ptr %36, align 4, !tbaa !7
  %192 = add i32 %191, 1
  store i32 %192, ptr %36, align 4, !tbaa !7
  call void @llvm.lifetime.end.p0(i64 8, ptr %46) #14
  call void @llvm.lifetime.end.p0(i64 8, ptr %45) #14
  call void @llvm.lifetime.end.p0(i64 8, ptr %44) #14
  call void @llvm.lifetime.end.p0(i64 8, ptr %43) #14
  call void @llvm.lifetime.end.p0(i64 8, ptr %42) #14
  call void @llvm.lifetime.end.p0(i64 4, ptr %36) #14
  br label %193

193:                                              ; preds = %152
  br label %194

194:                                              ; preds = %193
  %195 = load i8, ptr %24, align 1, !tbaa !23
  %196 = zext i8 %195 to i64
  %197 = load i8, ptr %23, align 1, !tbaa !23
  %198 = zext i8 %197 to i64
  %199 = shl i64 %198, 8
  %200 = getelementptr inbounds nuw %struct.Hacl_Hash_Blake2b_blake2_params_s, ptr %9, i32 0, i32 2
  %201 = load i8, ptr %200, align 2, !tbaa !14
  %202 = zext i8 %201 to i64
  %203 = shl i64 %202, 16
  %204 = getelementptr inbounds nuw %struct.Hacl_Hash_Blake2b_blake2_params_s, ptr %9, i32 0, i32 3
  %205 = load i8, ptr %204, align 1, !tbaa !15
  %206 = zext i8 %205 to i64
  %207 = shl i64 %206, 24
  %208 = getelementptr inbounds nuw %struct.Hacl_Hash_Blake2b_blake2_params_s, ptr %9, i32 0, i32 4
  %209 = load i32, ptr %208, align 4, !tbaa !16
  %210 = zext i32 %209 to i64
  %211 = shl i64 %210, 32
  %212 = xor i64 %207, %211
  %213 = xor i64 %203, %212
  %214 = xor i64 %199, %213
  %215 = xor i64 %196, %214
  %216 = getelementptr [8 x i64], ptr %10, i64 0, i64 0
  store i64 %215, ptr %216, align 16, !tbaa !22
  %217 = getelementptr inbounds nuw %struct.Hacl_Hash_Blake2b_blake2_params_s, ptr %9, i32 0, i32 5
  %218 = load i64, ptr %217, align 8, !tbaa !17
  %219 = getelementptr [8 x i64], ptr %10, i64 0, i64 1
  store i64 %218, ptr %219, align 8, !tbaa !22
  %220 = getelementptr inbounds nuw %struct.Hacl_Hash_Blake2b_blake2_params_s, ptr %9, i32 0, i32 6
  %221 = load i8, ptr %220, align 8, !tbaa !18
  %222 = zext i8 %221 to i64
  %223 = getelementptr inbounds nuw %struct.Hacl_Hash_Blake2b_blake2_params_s, ptr %9, i32 0, i32 7
  %224 = load i8, ptr %223, align 1, !tbaa !19
  %225 = zext i8 %224 to i64
  %226 = shl i64 %225, 8
  %227 = xor i64 %222, %226
  %228 = getelementptr [8 x i64], ptr %10, i64 0, i64 2
  store i64 %227, ptr %228, align 16, !tbaa !22
  %229 = getelementptr [8 x i64], ptr %10, i64 0, i64 3
  store i64 0, ptr %229, align 8, !tbaa !22
  call void @llvm.lifetime.start.p0(i64 8, ptr %47) #14
  %230 = getelementptr [8 x i64], ptr %10, i64 0, i64 0
  %231 = load i64, ptr %230, align 16, !tbaa !22
  store i64 %231, ptr %47, align 8, !tbaa !22
  call void @llvm.lifetime.start.p0(i64 8, ptr %48) #14
  %232 = getelementptr [8 x i64], ptr %10, i64 0, i64 1
  %233 = load i64, ptr %232, align 8, !tbaa !22
  store i64 %233, ptr %48, align 8, !tbaa !22
  call void @llvm.lifetime.start.p0(i64 8, ptr %49) #14
  %234 = getelementptr [8 x i64], ptr %10, i64 0, i64 2
  %235 = load i64, ptr %234, align 16, !tbaa !22
  store i64 %235, ptr %49, align 8, !tbaa !22
  call void @llvm.lifetime.start.p0(i64 8, ptr %50) #14
  %236 = getelementptr [8 x i64], ptr %10, i64 0, i64 3
  %237 = load i64, ptr %236, align 8, !tbaa !22
  store i64 %237, ptr %50, align 8, !tbaa !22
  call void @llvm.lifetime.start.p0(i64 8, ptr %51) #14
  %238 = getelementptr [8 x i64], ptr %10, i64 0, i64 4
  %239 = load i64, ptr %238, align 16, !tbaa !22
  store i64 %239, ptr %51, align 8, !tbaa !22
  call void @llvm.lifetime.start.p0(i64 8, ptr %52) #14
  %240 = getelementptr [8 x i64], ptr %10, i64 0, i64 5
  %241 = load i64, ptr %240, align 8, !tbaa !22
  store i64 %241, ptr %52, align 8, !tbaa !22
  call void @llvm.lifetime.start.p0(i64 8, ptr %53) #14
  %242 = getelementptr [8 x i64], ptr %10, i64 0, i64 6
  %243 = load i64, ptr %242, align 16, !tbaa !22
  store i64 %243, ptr %53, align 8, !tbaa !22
  call void @llvm.lifetime.start.p0(i64 8, ptr %54) #14
  %244 = getelementptr [8 x i64], ptr %10, i64 0, i64 7
  %245 = load i64, ptr %244, align 8, !tbaa !22
  store i64 %245, ptr %54, align 8, !tbaa !22
  call void @llvm.lifetime.start.p0(i64 8, ptr %55) #14
  %246 = load i64, ptr %15, align 8, !tbaa !22
  %247 = load i64, ptr %47, align 8, !tbaa !22
  %248 = xor i64 %246, %247
  store i64 %248, ptr %55, align 8, !tbaa !22
  call void @llvm.lifetime.start.p0(i64 8, ptr %56) #14
  %249 = load i64, ptr %16, align 8, !tbaa !22
  %250 = load i64, ptr %48, align 8, !tbaa !22
  %251 = xor i64 %249, %250
  store i64 %251, ptr %56, align 8, !tbaa !22
  call void @llvm.lifetime.start.p0(i64 8, ptr %57) #14
  %252 = load i64, ptr %17, align 8, !tbaa !22
  %253 = load i64, ptr %49, align 8, !tbaa !22
  %254 = xor i64 %252, %253
  store i64 %254, ptr %57, align 8, !tbaa !22
  call void @llvm.lifetime.start.p0(i64 8, ptr %58) #14
  %255 = load i64, ptr %18, align 8, !tbaa !22
  %256 = load i64, ptr %50, align 8, !tbaa !22
  %257 = xor i64 %255, %256
  store i64 %257, ptr %58, align 8, !tbaa !22
  call void @llvm.lifetime.start.p0(i64 8, ptr %59) #14
  %258 = load i64, ptr %19, align 8, !tbaa !22
  %259 = load i64, ptr %51, align 8, !tbaa !22
  %260 = xor i64 %258, %259
  store i64 %260, ptr %59, align 8, !tbaa !22
  call void @llvm.lifetime.start.p0(i64 8, ptr %60) #14
  %261 = load i64, ptr %20, align 8, !tbaa !22
  %262 = load i64, ptr %52, align 8, !tbaa !22
  %263 = xor i64 %261, %262
  store i64 %263, ptr %60, align 8, !tbaa !22
  call void @llvm.lifetime.start.p0(i64 8, ptr %61) #14
  %264 = load i64, ptr %21, align 8, !tbaa !22
  %265 = load i64, ptr %53, align 8, !tbaa !22
  %266 = xor i64 %264, %265
  store i64 %266, ptr %61, align 8, !tbaa !22
  call void @llvm.lifetime.start.p0(i64 8, ptr %62) #14
  %267 = load i64, ptr %22, align 8, !tbaa !22
  %268 = load i64, ptr %54, align 8, !tbaa !22
  %269 = xor i64 %267, %268
  store i64 %269, ptr %62, align 8, !tbaa !22
  %270 = load i64, ptr %58, align 8, !tbaa !22
  %271 = load i64, ptr %57, align 8, !tbaa !22
  %272 = load i64, ptr %56, align 8, !tbaa !22
  %273 = load i64, ptr %55, align 8, !tbaa !22
  %274 = call <4 x i64> @_mm256_set_epi64x(i64 noundef %270, i64 noundef %271, i64 noundef %272, i64 noundef %273)
  %275 = load ptr, ptr %11, align 8, !tbaa !3
  %276 = getelementptr <4 x i64>, ptr %275, i64 0
  store <4 x i64> %274, ptr %276, align 32, !tbaa !23
  %277 = load i64, ptr %62, align 8, !tbaa !22
  %278 = load i64, ptr %61, align 8, !tbaa !22
  %279 = load i64, ptr %60, align 8, !tbaa !22
  %280 = load i64, ptr %59, align 8, !tbaa !22
  %281 = call <4 x i64> @_mm256_set_epi64x(i64 noundef %277, i64 noundef %278, i64 noundef %279, i64 noundef %280)
  %282 = load ptr, ptr %12, align 8, !tbaa !3
  %283 = getelementptr <4 x i64>, ptr %282, i64 0
  store <4 x i64> %281, ptr %283, align 32, !tbaa !23
  call void @llvm.lifetime.end.p0(i64 8, ptr %62) #14
  call void @llvm.lifetime.end.p0(i64 8, ptr %61) #14
  call void @llvm.lifetime.end.p0(i64 8, ptr %60) #14
  call void @llvm.lifetime.end.p0(i64 8, ptr %59) #14
  call void @llvm.lifetime.end.p0(i64 8, ptr %58) #14
  call void @llvm.lifetime.end.p0(i64 8, ptr %57) #14
  call void @llvm.lifetime.end.p0(i64 8, ptr %56) #14
  call void @llvm.lifetime.end.p0(i64 8, ptr %55) #14
  call void @llvm.lifetime.end.p0(i64 8, ptr %54) #14
  call void @llvm.lifetime.end.p0(i64 8, ptr %53) #14
  call void @llvm.lifetime.end.p0(i64 8, ptr %52) #14
  call void @llvm.lifetime.end.p0(i64 8, ptr %51) #14
  call void @llvm.lifetime.end.p0(i64 8, ptr %50) #14
  call void @llvm.lifetime.end.p0(i64 8, ptr %49) #14
  call void @llvm.lifetime.end.p0(i64 8, ptr %48) #14
  call void @llvm.lifetime.end.p0(i64 8, ptr %47) #14
  call void @llvm.lifetime.end.p0(i64 1, ptr %24) #14
  call void @llvm.lifetime.end.p0(i64 1, ptr %23) #14
  call void @llvm.lifetime.end.p0(i64 8, ptr %22) #14
  call void @llvm.lifetime.end.p0(i64 8, ptr %21) #14
  call void @llvm.lifetime.end.p0(i64 8, ptr %20) #14
  call void @llvm.lifetime.end.p0(i64 8, ptr %19) #14
  call void @llvm.lifetime.end.p0(i64 8, ptr %18) #14
  call void @llvm.lifetime.end.p0(i64 8, ptr %17) #14
  call void @llvm.lifetime.end.p0(i64 8, ptr %16) #14
  call void @llvm.lifetime.end.p0(i64 8, ptr %15) #14
  call void @llvm.lifetime.end.p0(i64 8, ptr %14) #14
  call void @llvm.lifetime.end.p0(i64 8, ptr %13) #14
  call void @llvm.lifetime.end.p0(i64 8, ptr %12) #14
  call void @llvm.lifetime.end.p0(i64 8, ptr %11) #14
  call void @llvm.lifetime.end.p0(i64 64, ptr %10) #14
  call void @llvm.lifetime.end.p0(i64 40, ptr %9) #14
  call void @llvm.lifetime.end.p0(i64 16, ptr %8) #14
  call void @llvm.lifetime.end.p0(i64 16, ptr %7) #14
  ret void
}