; Function Attrs: mustprogress nofree norecurse nosync nounwind willreturn memory(argmem: write) uwtable
define hidden void @python_hashlib_Hacl_Hash_Blake2b_Simd256_init(ptr noundef writeonly captures(none) initializes((0, 128)) %0, i32 noundef %1, i32 noundef %2) local_unnamed_addr #0 {
  %4 = getelementptr i8, ptr %0, i64 32
  %5 = getelementptr i8, ptr %0, i64 64
  %6 = getelementptr i8, ptr %0, i64 96
  store <4 x i64> <i64 7640891576956012808, i64 -4942790177534073029, i64 4354685564936845355, i64 -6534734903238641935>, ptr %5, align 32, !tbaa !3
  store <4 x i64> <i64 5840696475078001361, i64 -7276294671716946913, i64 2270897969802886507, i64 6620516959819538809>, ptr %6, align 32, !tbaa !3
  %7 = and i32 %2, 255
  %8 = shl i32 %1, 8
  %9 = and i32 %8, 65280
  %10 = or disjoint i32 %9, %7
  %11 = or disjoint i32 %10, 16842752
  %12 = zext nneg i32 %11 to i64
  %13 = xor i64 %12, 7640891576956012808
  %14 = insertelement <4 x i64> <i64 poison, i64 -4942790177534073029, i64 4354685564936845355, i64 -6534734903238641935>, i64 %13, i64 0
  store <4 x i64> %14, ptr %0, align 32, !tbaa !3
  store <4 x i64> <i64 5840696475078001361, i64 -7276294671716946913, i64 2270897969802886507, i64 6620516959819538809>, ptr %4, align 32, !tbaa !3
  ret void
}